target datalayout = "e-m:e-p270:32:32-p271:32:32-p272:64:64-i64:64-i128:128-f80:128-n8:16:32:64-S128"
target triple = "x86_64-pc-linux-gnu"

; Function Attrs: null_pointer_is_valid sspstrong uwtable
define hidden zeroext i16 @dcerpc_tvb_get_ntohs(ptr noundef %0, i32 noundef %1, ptr noundef %2) #0 {
  %4 = alloca i16, align 2
  %5 = alloca ptr, align 8
  %6 = alloca i32, align 4
  %7 = alloca ptr, align 8
  store ptr %0, ptr %5, align 8
  store i32 %1, ptr %6, align 4
  store ptr %2, ptr %7, align 8
  %8 = load ptr, ptr %7, align 8
  %9 = getelementptr i8, ptr %8, i64 0
  %10 = load i8, ptr %9, align 1
  %11 = zext i8 %10 to i32
  %12 = and i32 %11, 16
  %13 = icmp ne i32 %12, 0
  br i1 %13, label %14, label %18

14:                                               ; preds = %3
  %15 = load ptr, ptr %5, align 8
  %16 = load i32, ptr %6, align 4
  %17 = call zeroext i16 @tvb_get_letohs(ptr noundef %15, i32 noundef %16)
  store i16 %17, ptr %4, align 2
  br label %22

18:                                               ; preds = %3
  %19 = load ptr, ptr %5, align 8
  %20 = load i32, ptr %6, align 4
  %21 = call zeroext i16 @tvb_get_ntohs(ptr noundef %19, i32 noundef %20)
  store i16 %21, ptr %4, align 2
  br label %22

22:                                               ; preds = %18, %14
  %23 = load i16, ptr %4, align 2
  ret i16 %23
}