; Function Attrs: null_pointer_is_valid sspstrong uwtable
define hidden zeroext i16 @dcerpc_tvb_get_ntohs(ptr noundef %0, i32 noundef %1, ptr noundef readonly captures(none) %2) local_unnamed_addr #0 {
  %4 = load i8, ptr %2, align 1
  %5 = and i8 %4, 16
  %.not = icmp eq i8 %5, 0
  br i1 %.not, label %8, label %6

6:                                                ; preds = %3
  %7 = tail call zeroext i16 @tvb_get_letohs(ptr noundef %0, i32 noundef %1)
  br label %10

8:                                                ; preds = %3
  %9 = tail call zeroext i16 @tvb_get_ntohs(ptr noundef %0, i32 noundef %1)
  br label %10

10:                                               ; preds = %8, %6
  %.0 = phi i16 [ %7, %6 ], [ %9, %8 ]
  ret i16 %.0
}